target datalayout = "e-m:e-p270:32:32-p271:32:32-p272:64:64-i64:64-i128:128-f80:128-n8:16:32:64-S128"
target triple = "x86_64-pc-linux-gnu"

; Function Attrs: nounwind uwtable
define signext i8 @EVUTIL_TOLOWER_(i8 noundef signext %0) #0 {
  %2 = alloca i8, align 1
  store i8 %0, ptr %2, align 1
  %3 = load i8, ptr %2, align 1
  %4 = zext i8 %3 to i64
  %5 = getelementptr inbounds nuw [256 x i8], ptr @EVUTIL_TOLOWER_TABLE, i64 0, i64 %4
  %6 = load i8, ptr %5, align 1
  ret i8 %6
}

; Function Attrs: nounwind uwtable
define i32 @evutil_ascii_strcasecmp(ptr noundef %0, ptr noundef %1) #0 {
  %3 = alloca i32, align 4
  %4 = alloca ptr, align 8
  %5 = alloca ptr, align 8
  %6 = alloca i8, align 1
  %7 = alloca i8, align 1
  %8 = alloca i32, align 4
  store ptr %0, ptr %4, align 8
  store ptr %1, ptr %5, align 8
  call void @llvm.lifetime.start.p0(i64 1, ptr %6) #11
  call void @llvm.lifetime.start.p0(i64 1, ptr %7) #11
  br label %9

9:                                                ; preds = %39, %2
  br label %10

10:                                               ; preds = %9
  %11 = load ptr, ptr %4, align 8
  %12 = getelementptr inbounds nuw i8, ptr %11, i32 1
  store ptr %12, ptr %4, align 8
  %13 = load i8, ptr %11, align 1
  %14 = call signext i8 @EVUTIL_TOLOWER_(i8 noundef signext %13)
  store i8 %14, ptr %6, align 1
  %15 = load ptr, ptr %5, align 8
  %16 = getelementptr inbounds nuw i8, ptr %15, i32 1
  store ptr %16, ptr %5, align 8
  %17 = load i8, ptr %15, align 1
  %18 = call signext i8 @EVUTIL_TOLOWER_(i8 noundef signext %17)
  store i8 %18, ptr %7, align 1
  %19 = load i8, ptr %6, align 1
  %20 = sext i8 %19 to i32
  %21 = load i8, ptr %7, align 1
  %22 = sext i8 %21 to i32
  %23 = icmp slt i32 %20, %22
  br i1 %23, label %24, label %25

24:                                               ; preds = %10
  store i32 -1, ptr %3, align 4
  store i32 1, ptr %8, align 4
  br label %40

25:                                               ; preds = %10
  %26 = load i8, ptr %6, align 1
  %27 = sext i8 %26 to i32
  %28 = load i8, ptr %7, align 1
  %29 = sext i8 %28 to i32
  %30 = icmp sgt i32 %27, %29
  br i1 %30, label %31, label %32

31:                                               ; preds = %25
  store i32 1, ptr %3, align 4
  store i32 1, ptr %8, align 4
  br label %40

32:                                               ; preds = %25
  %33 = load i8, ptr %6, align 1
  %34 = sext i8 %33 to i32
  %35 = icmp eq i32 %34, 0
  br i1 %35, label %36, label %37

36:                                               ; preds = %32
  store i32 0, ptr %3, align 4
  store i32 1, ptr %8, align 4
  br label %40

37:                                               ; preds = %32
  br label %38

38:                                               ; preds = %37
  br label %39

39:                                               ; preds = %38
  br label %9

40:                                               ; preds = %36, %31, %24
  call void @llvm.lifetime.end.p0(i64 1, ptr %7) #11
  call void @llvm.lifetime.end.p0(i64 1, ptr %6) #11
  %41 = load i32, ptr %3, align 4
  ret i32 %41
}