; Function Attrs: nofree norecurse nosync nounwind memory(argmem: read) uwtable
define range(i32 -1, 2) i32 @evutil_ascii_strcasecmp(ptr noundef readonly captures(none) %0, ptr noundef readonly captures(none) %1) local_unnamed_addr #21 {
  br label %3

3:                                                ; preds = %17, %2
  %.08 = phi ptr [ %1, %2 ], [ %9, %17 ]
  %.07 = phi ptr [ %0, %2 ], [ %4, %17 ]
  %4 = getelementptr inbounds nuw i8, ptr %.07, i64 1
  %5 = load i8, ptr %.07, align 1
  %6 = zext i8 %5 to i64
  %7 = getelementptr inbounds nuw [256 x i8], ptr @EVUTIL_TOLOWER_TABLE, i64 0, i64 %6
  %8 = load i8, ptr %7, align 1
  %9 = getelementptr inbounds nuw i8, ptr %.08, i64 1
  %10 = load i8, ptr %.08, align 1
  %11 = zext i8 %10 to i64
  %12 = getelementptr inbounds nuw [256 x i8], ptr @EVUTIL_TOLOWER_TABLE, i64 0, i64 %11
  %13 = load i8, ptr %12, align 1
  %14 = icmp slt i8 %8, %13
  br i1 %14, label %19, label %15

15:                                               ; preds = %3
  %16 = icmp sgt i8 %8, %13
  br i1 %16, label %19, label %17

17:                                               ; preds = %15
  %18 = icmp eq i8 %5, 0
  br i1 %18, label %19, label %3

19:                                               ; preds = %17, %15, %3
  %.0 = phi i32 [ -1, %3 ], [ 1, %15 ], [ 0, %17 ]
  ret i32 %.0
}